target datalayout = "e-m:e-p270:32:32-p271:32:32-p272:64:64-i64:64-i128:128-f80:128-n8:16:32:64-S128"
target triple = "x86_64-pc-linux-gnu"

%struct.mbedtls_mpi = type { ptr, i16, i16 }
%union.mbedtls_ssl_user_data_t = type { i64 }
%struct.mbedtls_ssl_context = type { ptr, i32, i32, i32, i32, i32, ptr, ptr, ptr, ptr, ptr, ptr, ptr, ptr, ptr, ptr, ptr, ptr, ptr, ptr, ptr, ptr, ptr, ptr, ptr, ptr, ptr, ptr, ptr, ptr, ptr, ptr, ptr, i32, i64, i64, i16, i64, i64, i64, i64, i32, i32, i8, i8, i32, i8, ptr, ptr, ptr, ptr, ptr, ptr, ptr, i32, i64, i64, [8 x i8], i16, ptr, ptr, ptr, i64, i32, i64, [12 x i8], [12 x i8], [32 x i8], i8, i8, ptr, ptr, %union.mbedtls_ssl_user_data_t }
%struct.mbedtls_md_context_t = type { ptr, ptr, ptr }
%struct.mbedtls_ssl_session = type { i8, i8, i8, i32, i64, i32, i64, [32 x i8], [48 x i8], ptr, i32, ptr, i64, i32, i64, i32, i8, i8, [48 x i8], ptr, i64, i32, %struct.mbedtls_ssl_tls13_application_secrets }
%struct.mbedtls_ssl_tls13_application_secrets = type { [64 x i8], [64 x i8], [64 x i8], [64 x i8] }
%struct.mbedtls_ssl_handshake_params = type { i8, i8, i8, i8, i8, i32, i8, i8, i8, i8, ptr, ptr, ptr, ptr, ptr, i8, i8, i8, i8, i16, i16, [20 x i16], ptr, ptr, %struct.mbedtls_dhm_context, %struct.mbedtls_ecdh_context, i16, i64, i32, i8, [1024 x i8], i64, ptr, ptr, i64, i16, ptr, ptr, ptr, ptr, %struct.anon, ptr, i16, i8, i32, i32, i32, ptr, ptr, ptr, i32, ptr, [8 x i8], i8, [32 x i8], i8, i16, %struct.mbedtls_md_context_t, %struct.mbedtls_md_context_t, i16, i8, %union.anon.1, [64 x i8], [1076 x i8], i64, i32, i32, i8, ptr, ptr, %union.anon.4, %struct.mbedtls_ssl_tls13_handshake_secrets, ptr, i64, ptr }
%struct.mbedtls_dhm_context = type { %struct.mbedtls_mpi, %struct.mbedtls_mpi, %struct.mbedtls_mpi, %struct.mbedtls_mpi, %struct.mbedtls_mpi, %struct.mbedtls_mpi, %struct.mbedtls_mpi, %struct.mbedtls_mpi, %struct.mbedtls_mpi, %struct.mbedtls_mpi }
%struct.mbedtls_ecdh_context = type { i8, i32, i32, %union.anon }
%union.anon = type { %struct.mbedtls_ecdh_context_mbed }
%struct.mbedtls_ecdh_context_mbed = type { %struct.mbedtls_ecp_group, %struct.mbedtls_mpi, %struct.mbedtls_ecp_point, %struct.mbedtls_ecp_point, %struct.mbedtls_mpi }
%struct.mbedtls_ecp_group = type { i32, %struct.mbedtls_mpi, %struct.mbedtls_mpi, %struct.mbedtls_mpi, %struct.mbedtls_ecp_point, %struct.mbedtls_mpi, i64, i64, i32, ptr, ptr, ptr, ptr, ptr, i64 }
%struct.mbedtls_ecp_point = type { %struct.mbedtls_mpi, %struct.mbedtls_mpi, %struct.mbedtls_mpi }
%struct.anon = type { i64, i8, [4 x %struct.mbedtls_ssl_hs_buffer], %struct.anon.0 }
%struct.mbedtls_ssl_hs_buffer = type { i8, ptr, i64 }
%struct.anon.0 = type { ptr, i64, i32 }
%union.anon.1 = type { %struct.anon.2 }
%struct.anon.2 = type { i8, [64 x i8], i64 }
%union.anon.4 = type { [64 x i8] }
%struct.mbedtls_ssl_tls13_handshake_secrets = type { [64 x i8], [64 x i8] }

@.str = private unnamed_addr constant [121 x i8] c"generated/home/dtcxzyw/WorkSpace/Projects/compilers/llvm-opt-benchmark/bench/lief/bench_build/mbed_src/library/ssl_tls.c\00", align 1
@.str.174 = private unnamed_addr constant [16 x i8] c"client finished\00", align 1
@.str.175 = private unnamed_addr constant [16 x i8] c"server finished\00", align 1
@.str.176 = private unnamed_addr constant [21 x i8] c"=> calc finished tls\00", align 1
@.str.177 = private unnamed_addr constant [16 x i8] c"finished output\00", align 1
@.str.178 = private unnamed_addr constant [21 x i8] c"calc finished result\00", align 1
@.str.179 = private unnamed_addr constant [17 x i8] c"<= calc finished\00", align 1

; Function Attrs: nounwind uwtable
define internal i32 @ssl_calc_finished_tls_generic(ptr noundef %0, ptr noundef %1, ptr noundef %2, i64 noundef %3, ptr noundef %4, i32 noundef %5) #0 {
  %7 = alloca ptr, align 8
  %8 = alloca ptr, align 8
  %9 = alloca ptr, align 8
  %10 = alloca i64, align 8
  %11 = alloca ptr, align 8
  %12 = alloca i32, align 4
  %13 = alloca i32, align 4
  %14 = alloca ptr, align 8
  %15 = alloca i32, align 4
  %16 = alloca ptr, align 8
  %17 = alloca %struct.mbedtls_md_context_t, align 8
  %18 = alloca ptr, align 8
  store ptr %0, ptr %7, align 8, !tbaa !27
  store ptr %1, ptr %8, align 8, !tbaa !70
  store ptr %2, ptr %9, align 8, !tbaa !29
  store i64 %3, ptr %10, align 8, !tbaa !8
  store ptr %4, ptr %11, align 8, !tbaa !29
  store i32 %5, ptr %12, align 4, !tbaa !10
  call void @llvm.lifetime.start.p0(i64 4, ptr %13) #11
  store i32 12, ptr %13, align 4, !tbaa !10
  call void @llvm.lifetime.start.p0(i64 8, ptr %14) #11
  call void @llvm.lifetime.start.p0(i64 4, ptr %15) #11
  store i32 -110, ptr %15, align 4, !tbaa !10
  call void @llvm.lifetime.start.p0(i64 8, ptr %16) #11
  %19 = load ptr, ptr %8, align 8, !tbaa !70
  store ptr %19, ptr %16, align 8, !tbaa !331
  call void @llvm.lifetime.start.p0(i64 24, ptr %17) #11
  call void @mbedtls_md_init(ptr noundef %17)
  call void @llvm.lifetime.start.p0(i64 8, ptr %18) #11
  %20 = load ptr, ptr %7, align 8, !tbaa !27
  %21 = getelementptr inbounds nuw %struct.mbedtls_ssl_context, ptr %20, i32 0, i32 15
  %22 = load ptr, ptr %21, align 8, !tbaa !105
  store ptr %22, ptr %18, align 8, !tbaa !50
  %23 = load ptr, ptr %18, align 8, !tbaa !50
  %24 = icmp ne ptr %23, null
  br i1 %24, label %29, label %25

25:                                               ; preds = %6
  %26 = load ptr, ptr %7, align 8, !tbaa !27
  %27 = getelementptr inbounds nuw %struct.mbedtls_ssl_context, ptr %26, i32 0, i32 14
  %28 = load ptr, ptr %27, align 8, !tbaa !147
  store ptr %28, ptr %18, align 8, !tbaa !50
  br label %29

29:                                               ; preds = %25, %6
  %30 = load i32, ptr %12, align 4, !tbaa !10
  %31 = icmp eq i32 %30, 0
  %32 = select i1 %31, ptr @.str.174, ptr @.str.175
  store ptr %32, ptr %14, align 8, !tbaa !29
  %33 = load ptr, ptr %7, align 8, !tbaa !27
  call void (ptr, i32, ptr, i32, ptr, ...) @mbedtls_debug_print_msg(ptr noundef %33, i32 noundef 2, ptr noundef @.str, i32 noundef 8141, ptr noundef @.str.176)
  %34 = load ptr, ptr %16, align 8, !tbaa !331
  %35 = call ptr @mbedtls_md_info_from_ctx(ptr noundef %34)
  %36 = call i32 @mbedtls_md_setup(ptr noundef %17, ptr noundef %35, i32 noundef 0)
  store i32 %36, ptr %15, align 4, !tbaa !10
  %37 = load i32, ptr %15, align 4, !tbaa !10
  %38 = icmp ne i32 %37, 0
  br i1 %38, label %39, label %40

39:                                               ; preds = %29
  br label %78

40:                                               ; preds = %29
  %41 = load ptr, ptr %16, align 8, !tbaa !331
  %42 = call i32 @mbedtls_md_clone(ptr noundef %17, ptr noundef %41)
  store i32 %42, ptr %15, align 4, !tbaa !10
  %43 = load i32, ptr %15, align 4, !tbaa !10
  %44 = icmp ne i32 %43, 0
  br i1 %44, label %45, label %46

45:                                               ; preds = %40
  br label %78

46:                                               ; preds = %40
  %47 = load ptr, ptr %9, align 8, !tbaa !29
  %48 = call i32 @mbedtls_md_finish(ptr noundef %17, ptr noundef %47)
  store i32 %48, ptr %15, align 4, !tbaa !10
  %49 = load i32, ptr %15, align 4, !tbaa !10
  %50 = icmp ne i32 %49, 0
  br i1 %50, label %51, label %52

51:                                               ; preds = %46
  br label %78

52:                                               ; preds = %46
  %53 = load ptr, ptr %7, align 8, !tbaa !27
  %54 = load ptr, ptr %9, align 8, !tbaa !29
  %55 = load i64, ptr %10, align 8, !tbaa !8
  call void @mbedtls_debug_print_buf(ptr noundef %53, i32 noundef 4, ptr noundef @.str, i32 noundef 8158, ptr noundef @.str.177, ptr noundef %54, i64 noundef %55)
  %56 = load ptr, ptr %7, align 8, !tbaa !27
  %57 = getelementptr inbounds nuw %struct.mbedtls_ssl_context, ptr %56, i32 0, i32 16
  %58 = load ptr, ptr %57, align 8, !tbaa !78
  %59 = getelementptr inbounds nuw %struct.mbedtls_ssl_handshake_params, ptr %58, i32 0, i32 14
  %60 = load ptr, ptr %59, align 8, !tbaa !289
  %61 = load ptr, ptr %18, align 8, !tbaa !50
  %62 = getelementptr inbounds nuw %struct.mbedtls_ssl_session, ptr %61, i32 0, i32 8
  %63 = getelementptr inbounds [48 x i8], ptr %62, i64 0, i64 0
  %64 = load ptr, ptr %14, align 8, !tbaa !29
  %65 = load ptr, ptr %9, align 8, !tbaa !29
  %66 = load i64, ptr %10, align 8, !tbaa !8
  %67 = load ptr, ptr %11, align 8, !tbaa !29
  %68 = load i32, ptr %13, align 4, !tbaa !10
  %69 = zext i32 %68 to i64
  %70 = call i32 %60(ptr noundef %63, i64 noundef 48, ptr noundef %64, ptr noundef %65, i64 noundef %66, ptr noundef %67, i64 noundef %69)
  %71 = load ptr, ptr %7, align 8, !tbaa !27
  %72 = load ptr, ptr %11, align 8, !tbaa !29
  %73 = load i32, ptr %13, align 4, !tbaa !10
  %74 = zext i32 %73 to i64
  call void @mbedtls_debug_print_buf(ptr noundef %71, i32 noundef 3, ptr noundef @.str, i32 noundef 8168, ptr noundef @.str.178, ptr noundef %72, i64 noundef %74)
  %75 = load ptr, ptr %9, align 8, !tbaa !29
  %76 = load i64, ptr %10, align 8, !tbaa !8
  call void @mbedtls_platform_zeroize(ptr noundef %75, i64 noundef %76)
  %77 = load ptr, ptr %7, align 8, !tbaa !27
  call void (ptr, i32, ptr, i32, ptr, ...) @mbedtls_debug_print_msg(ptr noundef %77, i32 noundef 2, ptr noundef @.str, i32 noundef 8172, ptr noundef @.str.179)
  br label %78

78:                                               ; preds = %52, %51, %45, %39
  call void @mbedtls_md_free(ptr noundef %17)
  %79 = load i32, ptr %15, align 4, !tbaa !10
  call void @llvm.lifetime.end.p0(i64 8, ptr %18) #11
  call void @llvm.lifetime.end.p0(i64 24, ptr %17) #11
  call void @llvm.lifetime.end.p0(i64 8, ptr %16) #11
  call void @llvm.lifetime.end.p0(i64 4, ptr %15) #11
  call void @llvm.lifetime.end.p0(i64 8, ptr %14) #11
  call void @llvm.lifetime.end.p0(i64 4, ptr %13) #11
  ret i32 %79
}