; Function Attrs: nounwind uwtable
define internal fastcc i32 @ssl_calc_finished_tls_generic(ptr noundef %0, ptr noundef %1, ptr noundef nonnull %2, i64 noundef range(i64 32, 49) %3, ptr noundef %4, i32 noundef %5) unnamed_addr #1 {
  %7 = alloca %struct.mbedtls_md_context_t, align 8
  call void @llvm.lifetime.start.p0(i64 24, ptr nonnull %7) #26
  call void @mbedtls_md_init(ptr noundef nonnull %7) #26
  %8 = getelementptr inbounds nuw i8, ptr %0, i64 104
  %9 = load ptr, ptr %8, align 8, !tbaa !88
  %.not = icmp eq ptr %9, null
  br i1 %.not, label %10, label %13

10:                                               ; preds = %6
  %11 = getelementptr inbounds nuw i8, ptr %0, i64 96
  %12 = load ptr, ptr %11, align 8, !tbaa !126
  br label %13

13:                                               ; preds = %10, %6
  %.0 = phi ptr [ %9, %6 ], [ %12, %10 ]
  %14 = icmp eq i32 %5, 0
  %15 = select i1 %14, ptr @.str.174, ptr @.str.175
  call void (ptr, i32, ptr, i32, ptr, ...) @mbedtls_debug_print_msg(ptr noundef nonnull %0, i32 noundef 2, ptr noundef nonnull @.str, i32 noundef 8141, ptr noundef nonnull @.str.176) #26
  %16 = call ptr @mbedtls_md_info_from_ctx(ptr noundef %1) #26
  %17 = call i32 @mbedtls_md_setup(ptr noundef nonnull %7, ptr noundef %16, i32 noundef 0) #26
  %.not33 = icmp eq i32 %17, 0
  br i1 %.not33, label %18, label %29

18:                                               ; preds = %13
  %19 = call i32 @mbedtls_md_clone(ptr noundef nonnull %7, ptr noundef %1) #26
  %.not34 = icmp eq i32 %19, 0
  br i1 %.not34, label %20, label %29

20:                                               ; preds = %18
  %21 = call i32 @mbedtls_md_finish(ptr noundef nonnull %7, ptr noundef nonnull %2) #26
  %.not35 = icmp eq i32 %21, 0
  br i1 %.not35, label %22, label %29

22:                                               ; preds = %20
  call void @mbedtls_debug_print_buf(ptr noundef nonnull %0, i32 noundef 4, ptr noundef nonnull @.str, i32 noundef 8158, ptr noundef nonnull @.str.177, ptr noundef nonnull %2, i64 noundef %3) #26
  %23 = getelementptr inbounds nuw i8, ptr %0, i64 112
  %24 = load ptr, ptr %23, align 8, !tbaa !70
  %25 = getelementptr inbounds nuw i8, ptr %24, i64 48
  %26 = load ptr, ptr %25, align 8, !tbaa !261
  %27 = getelementptr inbounds nuw i8, ptr %.0, i64 64
  %28 = call i32 %26(ptr noundef nonnull %27, i64 noundef 48, ptr noundef nonnull %15, ptr noundef nonnull %2, i64 noundef %3, ptr noundef %4, i64 noundef 12) #26
  call void @mbedtls_debug_print_buf(ptr noundef nonnull %0, i32 noundef 3, ptr noundef nonnull @.str, i32 noundef 8168, ptr noundef nonnull @.str.178, ptr noundef %4, i64 noundef 12) #26
  call void @mbedtls_platform_zeroize(ptr noundef nonnull %2, i64 noundef %3) #26
  call void (ptr, i32, ptr, i32, ptr, ...) @mbedtls_debug_print_msg(ptr noundef nonnull %0, i32 noundef 2, ptr noundef nonnull @.str, i32 noundef 8172, ptr noundef nonnull @.str.179) #26
  br label %29

29:                                               ; preds = %20, %18, %13, %22
  %.028 = phi i32 [ %17, %13 ], [ %19, %18 ], [ %21, %20 ], [ 0, %22 ]
  call void @mbedtls_md_free(ptr noundef nonnull %7) #26
  call void @llvm.lifetime.end.p0(i64 24, ptr nonnull %7) #26
  ret i32 %.028
}